target datalayout = "e-m:e-p270:32:32-p271:32:32-p272:64:64-i64:64-i128:128-f80:128-n8:16:32:64-S128"
target triple = "x86_64-pc-linux-gnu"

%struct.NMTPreInitAllocation = type { ptr, i64, ptr }
%class.NMTPreInitAllocationTable = type <{ [8191 x ptr], i32, [4 x i8] }>

@.str = private unnamed_addr constant [81 x i8] c"entries: %d (primary: %d, empties: %d), sum bytes: %lu, longest chain length: %d\00", align 1
@_ZN10NMTPreInit6_tableE = hidden global ptr null, align 8
@_ZN10NMTPreInit16_num_mallocs_preE = hidden global i32 0, align 4
@_ZN10NMTPreInit17_num_reallocs_preE = hidden global i32 0, align 4
@_ZN10NMTPreInit14_num_frees_preE = hidden global i32 0, align 4
@.str.4 = private unnamed_addr constant [64 x i8] c"pre-init mallocs: %u, pre-init reallocs: %u, pre-init frees: %u\00", align 1

; Function Attrs: mustprogress nounwind uwtable
define linkonce_odr hidden noundef i32 @_Z4MAX2IiET_S0_S0_(i32 noundef %0, i32 noundef %1) #1 comdat {
  %3 = alloca i32, align 4
  %4 = alloca i32, align 4
  store i32 %0, ptr %3, align 4
  store i32 %1, ptr %4, align 4
  %5 = load i32, ptr %3, align 4
  %6 = load i32, ptr %4, align 4
  %7 = icmp sgt i32 %5, %6
  br i1 %7, label %8, label %10

8:                                                ; preds = %2
  %9 = load i32, ptr %3, align 4
  br label %12

10:                                               ; preds = %2
  %11 = load i32, ptr %4, align 4
  br label %12

12:                                               ; preds = %10, %8
  %13 = phi i32 [ %9, %8 ], [ %11, %10 ]
  ret i32 %13
}

; Function Attrs: mustprogress nounwind uwtable
define hidden void @_ZNK25NMTPreInitAllocationTable11print_stateEP12outputStream(ptr noundef nonnull align 8 dereferenceable(65532) %0, ptr noundef %1) #1 align 2 {
  %3 = alloca ptr, align 8
  %4 = alloca ptr, align 8
  %5 = alloca i32, align 4
  %6 = alloca i32, align 4
  %7 = alloca i32, align 4
  %8 = alloca i64, align 8
  %9 = alloca i32, align 4
  %10 = alloca i32, align 4
  %11 = alloca ptr, align 8
  store ptr %0, ptr %3, align 8
  store ptr %1, ptr %4, align 8
  %12 = load ptr, ptr %3, align 8
  store i32 0, ptr %5, align 4
  store i32 0, ptr %6, align 4
  store i32 0, ptr %7, align 4
  store i64 0, ptr %8, align 8
  store i32 0, ptr %9, align 4
  br label %13

13:                                               ; preds = %50, %2
  %14 = load i32, ptr %9, align 4
  %15 = icmp slt i32 %14, 8191
  br i1 %15, label %16, label %53

16:                                               ; preds = %13
  store i32 0, ptr %10, align 4
  %17 = getelementptr inbounds %class.NMTPreInitAllocationTable, ptr %12, i32 0, i32 0
  %18 = load i32, ptr %9, align 4
  %19 = sext i32 %18 to i64
  %20 = getelementptr inbounds [8191 x ptr], ptr %17, i64 0, i64 %19
  %21 = load ptr, ptr %20, align 8
  store ptr %21, ptr %11, align 8
  br label %22

22:                                               ; preds = %33, %16
  %23 = load ptr, ptr %11, align 8
  %24 = icmp ne ptr %23, null
  br i1 %24, label %25, label %37

25:                                               ; preds = %22
  %26 = load i32, ptr %10, align 4
  %27 = add nsw i32 %26, 1
  store i32 %27, ptr %10, align 4
  %28 = load ptr, ptr %11, align 8
  %29 = getelementptr inbounds %struct.NMTPreInitAllocation, ptr %28, i32 0, i32 1
  %30 = load i64, ptr %29, align 8
  %31 = load i64, ptr %8, align 8
  %32 = add i64 %31, %30
  store i64 %32, ptr %8, align 8
  br label %33

33:                                               ; preds = %25
  %34 = load ptr, ptr %11, align 8
  %35 = getelementptr inbounds %struct.NMTPreInitAllocation, ptr %34, i32 0, i32 0
  %36 = load ptr, ptr %35, align 8
  store ptr %36, ptr %11, align 8
  br label %22, !llvm.loop !9

37:                                               ; preds = %22
  %38 = load i32, ptr %10, align 4
  %39 = icmp sgt i32 %38, 0
  br i1 %39, label %40, label %43

40:                                               ; preds = %37
  %41 = load i32, ptr %6, align 4
  %42 = add nsw i32 %41, 1
  store i32 %42, ptr %6, align 4
  br label %43

43:                                               ; preds = %40, %37
  %44 = load i32, ptr %10, align 4
  %45 = load i32, ptr %5, align 4
  %46 = add nsw i32 %45, %44
  store i32 %46, ptr %5, align 4
  %47 = load i32, ptr %10, align 4
  %48 = load i32, ptr %7, align 4
  %49 = call noundef i32 @_Z4MAX2IiET_S0_S0_(i32 noundef %47, i32 noundef %48)
  store i32 %49, ptr %7, align 4
  br label %50

50:                                               ; preds = %43
  %51 = load i32, ptr %9, align 4
  %52 = add nsw i32 %51, 1
  store i32 %52, ptr %9, align 4
  br label %13, !llvm.loop !10

53:                                               ; preds = %13
  %54 = load ptr, ptr %4, align 8
  %55 = load i32, ptr %5, align 4
  %56 = load i32, ptr %6, align 4
  %57 = load i32, ptr %6, align 4
  %58 = sub nsw i32 8191, %57
  %59 = load i64, ptr %8, align 8
  %60 = load i32, ptr %7, align 4
  call void (ptr, ptr, ...) @_ZN12outputStream5printEPKcz(ptr noundef nonnull align 8 dereferenceable(56) %54, ptr noundef @.str, i32 noundef %55, i32 noundef %56, i32 noundef %58, i64 noundef %59, i32 noundef %60)
  ret void
}

; Function Attrs: mustprogress nounwind uwtable
define hidden void @_ZN10NMTPreInit11print_stateEP12outputStream(ptr noundef %0) #1 align 2 {
  %2 = alloca ptr, align 8
  store ptr %0, ptr %2, align 8
  %3 = load ptr, ptr @_ZN10NMTPreInit6_tableE, align 8
  %4 = icmp ne ptr %3, null
  br i1 %4, label %5, label %9

5:                                                ; preds = %1
  %6 = load ptr, ptr @_ZN10NMTPreInit6_tableE, align 8
  %7 = load ptr, ptr %2, align 8
  call void @_ZNK25NMTPreInitAllocationTable11print_stateEP12outputStream(ptr noundef nonnull align 8 dereferenceable(65532) %6, ptr noundef %7)
  %8 = load ptr, ptr %2, align 8
  call void @_ZN12outputStream2crEv(ptr noundef nonnull align 8 dereferenceable(56) %8)
  br label %9

9:                                                ; preds = %5, %1
  %10 = load ptr, ptr %2, align 8
  %11 = load i32, ptr @_ZN10NMTPreInit16_num_mallocs_preE, align 4
  %12 = load i32, ptr @_ZN10NMTPreInit17_num_reallocs_preE, align 4
  %13 = load i32, ptr @_ZN10NMTPreInit14_num_frees_preE, align 4
  call void (ptr, ptr, ...) @_ZN12outputStream8print_crEPKcz(ptr noundef nonnull align 8 dereferenceable(56) %10, ptr noundef @.str.4, i32 noundef %11, i32 noundef %12, i32 noundef %13)
  ret void
}