; Function Attrs: mustprogress nounwind uwtable
define hidden void @_ZN10NMTPreInit11print_stateEP12outputStream(ptr noundef %0) local_unnamed_addr #0 align 2 {
  %2 = load ptr, ptr @_ZN10NMTPreInit6_tableE, align 8
  %.not = icmp eq ptr %2, null
  br i1 %.not, label %12, label %.preheader

.preheader:                                       ; preds = %1, %._crit_edge.i
  %indvars.iv.i = phi i64 [ %indvars.iv.next.i, %._crit_edge.i ], [ 0, %1 ]
  %.02237.i = phi i64 [ %.1.lcssa.i, %._crit_edge.i ], [ 0, %1 ]
  %.02336.i = phi i32 [ %10, %._crit_edge.i ], [ 0, %1 ]
  %.02435.i = phi i32 [ %spec.select.i, %._crit_edge.i ], [ 0, %1 ]
  %.02634.i = phi i32 [ %9, %._crit_edge.i ], [ 0, %1 ]
  %3 = getelementptr inbounds [8191 x ptr], ptr %2, i64 0, i64 %indvars.iv.i
  %.028.i = load ptr, ptr %3, align 8
  %.not29.i = icmp eq ptr %.028.i, null
  br i1 %.not29.i, label %._crit_edge.i, label %.lr.ph.i

.lr.ph.i:                                         ; preds = %.preheader, %.lr.ph.i
  %.032.i = phi ptr [ %.0.i, %.lr.ph.i ], [ %.028.i, %.preheader ]
  %.02031.i = phi i32 [ %4, %.lr.ph.i ], [ 0, %.preheader ]
  %.130.i = phi i64 [ %7, %.lr.ph.i ], [ %.02237.i, %.preheader ]
  %4 = add nuw nsw i32 %.02031.i, 1
  %5 = getelementptr inbounds i8, ptr %.032.i, i64 8
  %6 = load i64, ptr %5, align 8
  %7 = add i64 %6, %.130.i
  %.0.i = load ptr, ptr %.032.i, align 8
  %.not.i = icmp eq ptr %.0.i, null
  br i1 %.not.i, label %._crit_edge.i, label %.lr.ph.i, !llvm.loop !9

._crit_edge.i:                                    ; preds = %.lr.ph.i, %.preheader
  %.1.lcssa.i = phi i64 [ %.02237.i, %.preheader ], [ %7, %.lr.ph.i ]
  %.020.lcssa.i = phi i32 [ 0, %.preheader ], [ %4, %.lr.ph.i ]
  %.not27.i = icmp ne i32 %.020.lcssa.i, 0
  %8 = zext i1 %.not27.i to i32
  %spec.select.i = add nuw nsw i32 %.02435.i, %8
  %9 = add nuw nsw i32 %.020.lcssa.i, %.02634.i
  %10 = tail call noundef i32 @llvm.smax.i32(i32 %.020.lcssa.i, i32 %.02336.i)
  %indvars.iv.next.i = add nuw nsw i64 %indvars.iv.i, 1
  %exitcond.not.i = icmp eq i64 %indvars.iv.next.i, 8191
  br i1 %exitcond.not.i, label %_ZNK25NMTPreInitAllocationTable11print_stateEP12outputStream.exit, label %.preheader, !llvm.loop !10

_ZNK25NMTPreInitAllocationTable11print_stateEP12outputStream.exit: ; preds = %._crit_edge.i
  %11 = sub nsw i32 8191, %spec.select.i
  tail call void (ptr, ptr, ...) @_ZN12outputStream5printEPKcz(ptr noundef nonnull align 8 dereferenceable(56) %0, ptr noundef nonnull @.str, i32 noundef %9, i32 noundef %spec.select.i, i32 noundef %11, i64 noundef %.1.lcssa.i, i32 noundef %10) #13
  tail call void @_ZN12outputStream2crEv(ptr noundef nonnull align 8 dereferenceable(56) %0) #13
  br label %12

12:                                               ; preds = %_ZNK25NMTPreInitAllocationTable11print_stateEP12outputStream.exit, %1
  %13 = load i32, ptr @_ZN10NMTPreInit16_num_mallocs_preE, align 4
  %14 = load i32, ptr @_ZN10NMTPreInit17_num_reallocs_preE, align 4
  %15 = load i32, ptr @_ZN10NMTPreInit14_num_frees_preE, align 4
  tail call void (ptr, ptr, ...) @_ZN12outputStream8print_crEPKcz(ptr noundef nonnull align 8 dereferenceable(56) %0, ptr noundef nonnull @.str.4, i32 noundef %13, i32 noundef %14, i32 noundef %15) #13
  ret void
}